target datalayout = "e-m:e-p270:32:32-p271:32:32-p272:64:64-i64:64-i128:128-f80:128-n8:16:32:64-S128"
target triple = "x86_64-pc-linux-gnu"

%struct.sqlda_struct = type { [8 x i8], i64, i16, i16, ptr, [1 x %struct.sqlvar_struct] }
%struct.sqlvar_struct = type { i16, i16, ptr, ptr, %struct.sqlname }
%struct.sqlname = type { i16, [64 x i8] }

@.str.4 = private unnamed_addr constant [8 x i8] c"SQLDA  \00", align 1
@.str.5 = private unnamed_addr constant [46 x i8] c"ecpg_build_native_sqlda on line %d sqld = %d\0A\00", align 1

; Function Attrs: nounwind uwtable
define internal void @ecpg_sqlda_align_add_size(i64 noundef %0, i32 noundef %1, i32 noundef %2, ptr noundef %3, ptr noundef %4) #0 {
  %6 = alloca i64, align 8
  %7 = alloca i32, align 4
  %8 = alloca i32, align 4
  %9 = alloca ptr, align 8
  %10 = alloca ptr, align 8
  store i64 %0, ptr %6, align 8
  store i32 %1, ptr %7, align 4
  store i32 %2, ptr %8, align 4
  store ptr %3, ptr %9, align 8
  store ptr %4, ptr %10, align 8
  %11 = load i64, ptr %6, align 8
  %12 = load i32, ptr %7, align 4
  %13 = sext i32 %12 to i64
  %14 = srem i64 %11, %13
  %15 = icmp ne i64 %14, 0
  br i1 %15, label %16, label %26

16:                                               ; preds = %5
  %17 = load i32, ptr %7, align 4
  %18 = sext i32 %17 to i64
  %19 = load i64, ptr %6, align 8
  %20 = load i32, ptr %7, align 4
  %21 = sext i32 %20 to i64
  %22 = srem i64 %19, %21
  %23 = sub i64 %18, %22
  %24 = load i64, ptr %6, align 8
  %25 = add i64 %24, %23
  store i64 %25, ptr %6, align 8
  br label %26

26:                                               ; preds = %16, %5
  %27 = load ptr, ptr %9, align 8
  %28 = icmp ne ptr %27, null
  br i1 %28, label %29, label %32

29:                                               ; preds = %26
  %30 = load i64, ptr %6, align 8
  %31 = load ptr, ptr %9, align 8
  store i64 %30, ptr %31, align 8
  br label %32

32:                                               ; preds = %29, %26
  %33 = load i32, ptr %8, align 4
  %34 = sext i32 %33 to i64
  %35 = load i64, ptr %6, align 8
  %36 = add i64 %35, %34
  store i64 %36, ptr %6, align 8
  %37 = load ptr, ptr %10, align 8
  %38 = icmp ne ptr %37, null
  br i1 %38, label %39, label %42

39:                                               ; preds = %32
  %40 = load i64, ptr %6, align 8
  %41 = load ptr, ptr %10, align 8
  store i64 %40, ptr %41, align 8
  br label %42

42:                                               ; preds = %39, %32
  ret void
}

; Function Attrs: nounwind uwtable
define internal i64 @sqlda_native_empty_size(ptr noundef %0) #0 {
  %2 = alloca ptr, align 8
  %3 = alloca i64, align 8
  %4 = alloca i32, align 4
  store ptr %0, ptr %2, align 8
  call void @llvm.lifetime.start.p0(i64 8, ptr %3) #7
  call void @llvm.lifetime.start.p0(i64 4, ptr %4) #7
  %5 = load ptr, ptr %2, align 8
  %6 = call i32 @PQnfields(ptr noundef %5)
  store i32 %6, ptr %4, align 4
  %7 = load i32, ptr %4, align 4
  %8 = sub i32 %7, 1
  %9 = sext i32 %8 to i64
  %10 = mul i64 %9, 96
  %11 = add i64 128, %10
  store i64 %11, ptr %3, align 8
  %12 = load i64, ptr %3, align 8
  call void @ecpg_sqlda_align_add_size(i64 noundef %12, i32 noundef 4, i32 noundef 0, ptr noundef %3, ptr noundef null)
  %13 = load i64, ptr %3, align 8
  call void @llvm.lifetime.end.p0(i64 4, ptr %4) #7
  call void @llvm.lifetime.end.p0(i64 8, ptr %3) #7
  ret i64 %13
}

; Function Attrs: nounwind uwtable
define internal i64 @sqlda_native_total_size(ptr noundef %0, i32 noundef %1, i32 noundef %2) #0 {
  %4 = alloca i64, align 8
  %5 = alloca ptr, align 8
  %6 = alloca i32, align 4
  %7 = alloca i32, align 4
  %8 = alloca i64, align 8
  %9 = alloca i32, align 4
  store ptr %0, ptr %5, align 8
  store i32 %1, ptr %6, align 4
  store i32 %2, ptr %7, align 4
  call void @llvm.lifetime.start.p0(i64 8, ptr %8) #7
  %10 = load ptr, ptr %5, align 8
  %11 = call i64 @sqlda_native_empty_size(ptr noundef %10)
  store i64 %11, ptr %8, align 8
  %12 = load i32, ptr %6, align 4
  %13 = icmp slt i32 %12, 0
  br i1 %13, label %14, label %16

14:                                               ; preds = %3
  %15 = load i64, ptr %8, align 8
  store i64 %15, ptr %4, align 8
  store i32 1, ptr %9, align 4
  br label %23

16:                                               ; preds = %3
  %17 = load ptr, ptr %5, align 8
  %18 = load i32, ptr %6, align 4
  %19 = load i32, ptr %7, align 4
  %20 = load i64, ptr %8, align 8
  %21 = call i64 @sqlda_common_total_size(ptr noundef %17, i32 noundef %18, i32 noundef %19, i64 noundef %20)
  store i64 %21, ptr %8, align 8
  %22 = load i64, ptr %8, align 8
  store i64 %22, ptr %4, align 8
  store i32 1, ptr %9, align 4
  br label %23

23:                                               ; preds = %16, %14
  call void @llvm.lifetime.end.p0(i64 8, ptr %8) #7
  %24 = load i64, ptr %4, align 8
  ret i64 %24
}

; Function Attrs: nounwind uwtable
define ptr @ecpg_build_native_sqlda(i32 noundef %0, ptr noundef %1, i32 noundef %2, i32 noundef %3) #0 {
  %5 = alloca ptr, align 8
  %6 = alloca i32, align 4
  %7 = alloca ptr, align 8
  %8 = alloca i32, align 4
  %9 = alloca i32, align 4
  %10 = alloca ptr, align 8
  %11 = alloca i64, align 8
  %12 = alloca i32, align 4
  %13 = alloca i32, align 4
  %14 = alloca ptr, align 8
  store i32 %0, ptr %6, align 4
  store ptr %1, ptr %7, align 8
  store i32 %2, ptr %8, align 4
  store i32 %3, ptr %9, align 4
  call void @llvm.lifetime.start.p0(i64 8, ptr %10) #7
  call void @llvm.lifetime.start.p0(i64 8, ptr %11) #7
  call void @llvm.lifetime.start.p0(i64 4, ptr %12) #7
  %15 = load ptr, ptr %7, align 8
  %16 = load i32, ptr %8, align 4
  %17 = load i32, ptr %9, align 4
  %18 = call i64 @sqlda_native_total_size(ptr noundef %15, i32 noundef %16, i32 noundef %17)
  store i64 %18, ptr %11, align 8
  %19 = load i64, ptr %11, align 8
  %20 = load i32, ptr %6, align 4
  %21 = call ptr @ecpg_alloc(i64 noundef %19, i32 noundef %20)
  store ptr %21, ptr %10, align 8
  %22 = load ptr, ptr %10, align 8
  %23 = icmp ne ptr %22, null
  br i1 %23, label %25, label %24

24:                                               ; preds = %4
  store ptr null, ptr %5, align 8
  store i32 1, ptr %13, align 4
  br label %102

25:                                               ; preds = %4
  %26 = load ptr, ptr %10, align 8
  %27 = load i64, ptr %11, align 8
  call void @llvm.memset.p0.i64(ptr align 8 %26, i8 0, i64 %27, i1 false)
  %28 = load ptr, ptr %10, align 8
  %29 = getelementptr inbounds nuw %struct.sqlda_struct, ptr %28, i32 0, i32 0
  %30 = getelementptr inbounds [8 x i8], ptr %29, i64 0, i64 0
  %31 = call i32 (ptr, ptr, ...) @pg_sprintf(ptr noundef %30, ptr noundef @.str.4)
  %32 = load ptr, ptr %7, align 8
  %33 = call i32 @PQnfields(ptr noundef %32)
  %34 = trunc i32 %33 to i16
  %35 = load ptr, ptr %10, align 8
  %36 = getelementptr inbounds nuw %struct.sqlda_struct, ptr %35, i32 0, i32 2
  store i16 %34, ptr %36, align 8
  %37 = load ptr, ptr %10, align 8
  %38 = getelementptr inbounds nuw %struct.sqlda_struct, ptr %37, i32 0, i32 3
  store i16 %34, ptr %38, align 2
  %39 = load i32, ptr %6, align 4
  %40 = load ptr, ptr %10, align 8
  %41 = getelementptr inbounds nuw %struct.sqlda_struct, ptr %40, i32 0, i32 3
  %42 = load i16, ptr %41, align 2
  %43 = sext i16 %42 to i32
  call void (ptr, ...) @ecpg_log(ptr noundef @.str.5, i32 noundef %39, i32 noundef %43)
  %44 = load ptr, ptr %10, align 8
  %45 = getelementptr inbounds nuw %struct.sqlda_struct, ptr %44, i32 0, i32 3
  %46 = load i16, ptr %45, align 2
  %47 = sext i16 %46 to i32
  %48 = sub i32 %47, 1
  %49 = sext i32 %48 to i64
  %50 = mul i64 %49, 96
  %51 = add i64 128, %50
  %52 = load ptr, ptr %10, align 8
  %53 = getelementptr inbounds nuw %struct.sqlda_struct, ptr %52, i32 0, i32 1
  store i64 %51, ptr %53, align 8
  store i32 0, ptr %12, align 4
  br label %54

54:                                               ; preds = %97, %25
  %55 = load i32, ptr %12, align 4
  %56 = load ptr, ptr %10, align 8
  %57 = getelementptr inbounds nuw %struct.sqlda_struct, ptr %56, i32 0, i32 3
  %58 = load i16, ptr %57, align 2
  %59 = sext i16 %58 to i32
  %60 = icmp slt i32 %55, %59
  br i1 %60, label %61, label %100

61:                                               ; preds = %54
  call void @llvm.lifetime.start.p0(i64 8, ptr %14) #7
  %62 = load ptr, ptr %7, align 8
  %63 = load i32, ptr %12, align 4
  %64 = call i32 @PQftype(ptr noundef %62, i32 noundef %63)
  %65 = load i32, ptr %9, align 4
  %66 = call i32 @sqlda_dynamic_type(i32 noundef %64, i32 noundef %65)
  %67 = trunc i32 %66 to i16
  %68 = load ptr, ptr %10, align 8
  %69 = getelementptr inbounds nuw %struct.sqlda_struct, ptr %68, i32 0, i32 5
  %70 = load i32, ptr %12, align 4
  %71 = sext i32 %70 to i64
  %72 = getelementptr inbounds [1 x %struct.sqlvar_struct], ptr %69, i64 0, i64 %71
  %73 = getelementptr inbounds nuw %struct.sqlvar_struct, ptr %72, i32 0, i32 0
  store i16 %67, ptr %73, align 8
  %74 = load ptr, ptr %7, align 8
  %75 = load i32, ptr %12, align 4
  %76 = call ptr @PQfname(ptr noundef %74, i32 noundef %75)
  store ptr %76, ptr %14, align 8
  %77 = load ptr, ptr %14, align 8
  %78 = call i64 @strlen(ptr noundef %77) #8
  %79 = trunc i64 %78 to i16
  %80 = load ptr, ptr %10, align 8
  %81 = getelementptr inbounds nuw %struct.sqlda_struct, ptr %80, i32 0, i32 5
  %82 = load i32, ptr %12, align 4
  %83 = sext i32 %82 to i64
  %84 = getelementptr inbounds [1 x %struct.sqlvar_struct], ptr %81, i64 0, i64 %83
  %85 = getelementptr inbounds nuw %struct.sqlvar_struct, ptr %84, i32 0, i32 4
  %86 = getelementptr inbounds nuw %struct.sqlname, ptr %85, i32 0, i32 0
  store i16 %79, ptr %86, align 8
  %87 = load ptr, ptr %10, align 8
  %88 = getelementptr inbounds nuw %struct.sqlda_struct, ptr %87, i32 0, i32 5
  %89 = load i32, ptr %12, align 4
  %90 = sext i32 %89 to i64
  %91 = getelementptr inbounds [1 x %struct.sqlvar_struct], ptr %88, i64 0, i64 %90
  %92 = getelementptr inbounds nuw %struct.sqlvar_struct, ptr %91, i32 0, i32 4
  %93 = getelementptr inbounds nuw %struct.sqlname, ptr %92, i32 0, i32 1
  %94 = getelementptr inbounds [64 x i8], ptr %93, i64 0, i64 0
  %95 = load ptr, ptr %14, align 8
  %96 = call ptr @strcpy(ptr noundef %94, ptr noundef %95) #7
  call void @llvm.lifetime.end.p0(i64 8, ptr %14) #7
  br label %97

97:                                               ; preds = %61
  %98 = load i32, ptr %12, align 4
  %99 = add i32 %98, 1
  store i32 %99, ptr %12, align 4
  br label %54, !llvm.loop !9

100:                                              ; preds = %54
  %101 = load ptr, ptr %10, align 8
  store ptr %101, ptr %5, align 8
  store i32 1, ptr %13, align 4
  br label %102

102:                                              ; preds = %100, %24
  call void @llvm.lifetime.end.p0(i64 4, ptr %12) #7
  call void @llvm.lifetime.end.p0(i64 8, ptr %11) #7
  call void @llvm.lifetime.end.p0(i64 8, ptr %10) #7
  %103 = load ptr, ptr %5, align 8
  ret ptr %103
}