; Function Attrs: nounwind uwtable
define ptr @ecpg_build_native_sqlda(i32 noundef %0, ptr noundef %1, i32 noundef %2, i32 noundef %3) local_unnamed_addr #0 {
  %5 = tail call i32 @PQnfields(ptr noundef %1) #6
  %6 = add i32 %5, -1
  %7 = sext i32 %6 to i64
  %8 = mul nsw i64 %7, 96
  %9 = add nsw i64 %8, 128
  %10 = icmp slt i32 %2, 0
  br i1 %10, label %sqlda_native_total_size.exit, label %11

11:                                               ; preds = %4
  %12 = tail call fastcc i64 @sqlda_common_total_size(ptr noundef %1, i32 noundef %2, i32 noundef %3, i64 noundef %9)
  br label %sqlda_native_total_size.exit

sqlda_native_total_size.exit:                     ; preds = %4, %11
  %.0.i = phi i64 [ %12, %11 ], [ %9, %4 ]
  %13 = tail call ptr @ecpg_alloc(i64 noundef %.0.i, i32 noundef %0) #6
  %.not = icmp eq ptr %13, null
  br i1 %.not, label %.loopexit, label %14

14:                                               ; preds = %sqlda_native_total_size.exit
  tail call void @llvm.memset.p0.i64(ptr nonnull align 8 %13, i8 0, i64 %.0.i, i1 false)
  %15 = tail call i32 (ptr, ptr, ...) @pg_sprintf(ptr noundef nonnull %13, ptr noundef nonnull @.str.4) #6
  %16 = tail call i32 @PQnfields(ptr noundef %1) #6
  %17 = trunc i32 %16 to i16
  %18 = getelementptr inbounds nuw i8, ptr %13, i64 16
  store i16 %17, ptr %18, align 8
  %19 = getelementptr inbounds nuw i8, ptr %13, i64 18
  store i16 %17, ptr %19, align 2
  %sext = shl i32 %16, 16
  %20 = ashr exact i32 %sext, 16
  tail call void (ptr, ...) @ecpg_log(ptr noundef nonnull @.str.5, i32 noundef %0, i32 noundef %20) #6
  %21 = load i16, ptr %19, align 2
  %22 = sext i16 %21 to i64
  %23 = mul nsw i64 %22, 96
  %24 = add nsw i64 %23, 32
  %25 = getelementptr inbounds nuw i8, ptr %13, i64 8
  store i64 %24, ptr %25, align 8
  %26 = icmp sgt i16 %21, 0
  br i1 %26, label %.lr.ph, label %.loopexit

.lr.ph:                                           ; preds = %14
  %27 = getelementptr inbounds nuw i8, ptr %13, i64 32
  br label %28

28:                                               ; preds = %.lr.ph, %28
  %indvars.iv = phi i64 [ 0, %.lr.ph ], [ %indvars.iv.next, %28 ]
  %29 = trunc nuw nsw i64 %indvars.iv to i32
  %30 = tail call i32 @PQftype(ptr noundef %1, i32 noundef %29) #6
  %31 = tail call i32 @sqlda_dynamic_type(i32 noundef %30, i32 noundef %3) #6
  %32 = trunc i32 %31 to i16
  %33 = getelementptr inbounds nuw [1 x %struct.sqlvar_struct], ptr %27, i64 0, i64 %indvars.iv
  store i16 %32, ptr %33, align 8
  %34 = tail call ptr @PQfname(ptr noundef %1, i32 noundef %29) #6
  %35 = tail call i64 @strlen(ptr noundef nonnull dereferenceable(1) %34) #7
  %36 = trunc i64 %35 to i16
  %37 = getelementptr inbounds nuw i8, ptr %33, i64 24
  store i16 %36, ptr %37, align 8
  %38 = getelementptr inbounds nuw i8, ptr %33, i64 26
  %39 = tail call ptr @strcpy(ptr noundef nonnull dereferenceable(1) %38, ptr noundef nonnull dereferenceable(1) %34) #6
  %indvars.iv.next = add nuw nsw i64 %indvars.iv, 1
  %40 = load i16, ptr %19, align 2
  %41 = sext i16 %40 to i64
  %42 = icmp slt i64 %indvars.iv.next, %41
  br i1 %42, label %28, label %.loopexit, !llvm.loop !7

.loopexit:                                        ; preds = %28, %14, %sqlda_native_total_size.exit
  ret ptr %13
}